; Function Attrs: nounwind uwtable
define ptr @l_Lean_Compiler_LCNF_PullFunDecls_findParamsDeps(ptr noundef readonly captures(none) %0, ptr noundef %1, ptr readnone captures(none) %2, ptr readnone captures(none) %3, ptr readnone captures(none) %4, ptr readnone captures(none) %5, ptr noundef %6) local_unnamed_addr #0 {
  %8 = getelementptr i8, ptr %0, i64 8
  %.val27 = load i64, ptr %8, align 8, !tbaa !12
  %9 = load ptr, ptr @l_Lean_Compiler_LCNF_PullFunDecls_findFVarDeps___closed__1, align 8, !tbaa !9
  %10 = tail call ptr @l_Array_forIn_x27Unsafe_loop___at_Lean_Compiler_LCNF_PullFunDecls_findParamsDeps___spec__1(ptr poison, ptr nonnull poison, ptr noundef %0, i64 noundef %.val27, i64 noundef 0, ptr noundef %9, ptr noundef %1, ptr poison, ptr poison, ptr poison, ptr poison, ptr noundef %6)
  %.val = load i32, ptr %10, align 4, !tbaa !4
  %11 = icmp eq i32 %.val, 1
  br i1 %11, label %47, label %12

12:                                               ; preds = %7
  %13 = getelementptr inbounds nuw i8, ptr %10, i64 8
  %14 = load ptr, ptr %13, align 8, !tbaa !9
  %15 = getelementptr inbounds nuw i8, ptr %10, i64 16
  %16 = load ptr, ptr %15, align 8, !tbaa !9
  %17 = ptrtoint ptr %16 to i64
  %18 = and i64 %17, 1
  %.not = icmp eq i64 %18, 0
  br i1 %.not, label %19, label %lean_inc.exit26

19:                                               ; preds = %12
  %.val.i = load i32, ptr %16, align 4, !tbaa !4
  %20 = icmp sgt i32 %.val.i, 0
  br i1 %20, label %21, label %23, !prof !11

21:                                               ; preds = %19
  %22 = add nuw i32 %.val.i, 1
  store i32 %22, ptr %16, align 4, !tbaa !4
  br label %lean_inc.exit26

23:                                               ; preds = %19
  %.not.i28 = icmp eq i32 %.val.i, 0
  br i1 %.not.i28, label %lean_inc.exit26, label %24

24:                                               ; preds = %23
  tail call void @lean_inc_ref_cold(ptr noundef nonnull %16) #5
  br label %lean_inc.exit26

lean_inc.exit26:                                  ; preds = %24, %23, %21, %12
  %25 = ptrtoint ptr %14 to i64
  %26 = and i64 %25, 1
  %.not32 = icmp eq i64 %26, 0
  br i1 %.not32, label %27, label %lean_inc.exit

27:                                               ; preds = %lean_inc.exit26
  %.val.i29 = load i32, ptr %14, align 4, !tbaa !4
  %28 = icmp sgt i32 %.val.i29, 0
  br i1 %28, label %29, label %31, !prof !11

29:                                               ; preds = %27
  %30 = add nuw i32 %.val.i29, 1
  store i32 %30, ptr %14, align 4, !tbaa !4
  br label %lean_inc.exit

31:                                               ; preds = %27
  %.not.i30 = icmp eq i32 %.val.i29, 0
  br i1 %.not.i30, label %lean_inc.exit, label %32

32:                                               ; preds = %31
  tail call void @lean_inc_ref_cold(ptr noundef nonnull %14) #5
  br label %lean_inc.exit

lean_inc.exit:                                    ; preds = %32, %31, %29, %lean_inc.exit26
  %33 = ptrtoint ptr %10 to i64
  %34 = and i64 %33, 1
  %.not33 = icmp eq i64 %34, 0
  br i1 %.not33, label %35, label %lean_dec.exit

35:                                               ; preds = %lean_inc.exit
  %36 = icmp sgt i32 %.val, 1
  br i1 %36, label %37, label %39, !prof !11

37:                                               ; preds = %35
  %38 = add nsw i32 %.val, -1
  store i32 %38, ptr %10, align 4, !tbaa !4
  br label %lean_dec.exit

39:                                               ; preds = %35
  %.not.i = icmp eq i32 %.val, 0
  br i1 %.not.i, label %lean_dec.exit, label %40

40:                                               ; preds = %39
  tail call void @lean_dec_ref_cold(ptr noundef nonnull %10) #5
  br label %lean_dec.exit

lean_dec.exit:                                    ; preds = %40, %39, %37, %lean_inc.exit
  tail call void @lean_inc_heartbeat() #5
  %41 = tail call noalias ptr @mi_malloc_small(i64 noundef 24) #5
  %42 = icmp eq ptr %41, null
  br i1 %42, label %43, label %lean_alloc_ctor.exit

43:                                               ; preds = %lean_dec.exit
  tail call void @lean_internal_panic_out_of_memory() #6
  unreachable

lean_alloc_ctor.exit:                             ; preds = %lean_dec.exit
  %44 = getelementptr inbounds nuw i8, ptr %41, i64 4
  store i32 1, ptr %41, align 4, !tbaa !4
  store i32 131096, ptr %44, align 4
  %45 = getelementptr inbounds nuw i8, ptr %41, i64 8
  store ptr %14, ptr %45, align 8, !tbaa !9
  %46 = getelementptr inbounds nuw i8, ptr %41, i64 16
  store ptr %16, ptr %46, align 8, !tbaa !9
  br label %47

47:                                               ; preds = %7, %lean_alloc_ctor.exit
  %.0 = phi ptr [ %41, %lean_alloc_ctor.exit ], [ %10, %7 ]
  ret ptr %.0
}